Certificate:
    Data:
        Version: 3 (0x2)
        Serial Number: 1 (0x1)
    Signature Algorithm: sha256WithRSAEncryption
        Issuer: CN=QUIC Server Root CA
        Validity
            Not Before: Apr  3 05:16:27 2016 GMT
            Not After : Apr  6 05:16:27 2016 GMT
        Subject: C=US, ST=California, L=Mountain View, O=QUIC Server, CN=127.0.0.1
        Subject Public Key Info:
            Public Key Algorithm: rsaEncryption
                Public-Key: (2048 bit)
                Modulus:
                    00:a4:bd:c7:e8:fc:8a:a3:01:87:31:13:6d:96:ec:
                    56:11:0d:7d:c8:27:6f:8b:58:f5:28:9f:54:dc:5a:
                    03:aa:ea:5f:0c:36:6b:0f:a9:b6:d4:4a:01:d1:dd:
                    e9:c3:5f:be:9d:cd:2f:57:16:d9:33:80:45:00:4b:
                    8a:02:2e:71:1c:c4:a9:1b:29:9e:b7:85:dc:e9:6a:
                    4b:7e:33:0b:e4:78:ad:cb:18:c7:09:f5:80:d2:61:
                    3d:1d:59:b4:f8:18:fb:63:ff:fc:5b:f0:10:98:bb:
                    4a:a8:20:37:0b:ab:df:e5:ff:89:d7:e3:9f:62:b5:
                    4e:3e:5a:ae:3e:ff:d2:02:6e:8a:a2:02:6e:31:f7:
                    49:39:4e:09:a7:5e:d6:2e:d2:82:8d:fb:93:a8:55:
                    4a:9f:c6:28:cf:cc:9e:28:eb:15:69:43:62:1d:b1:
                    11:fc:83:c9:74:05:2b:92:e9:65:26:8c:57:53:58:
                    0e:20:d9:7b:f0:27:37:28:4c:10:b8:30:3a:a6:4c:
                    d1:25:dc:76:79:39:46:86:02:39:3e:0d:8b:0d:59:
                    35:f3:51:13:c4:2b:03:61:cb:b7:62:ee:9f:50:4e:
                    19:6b:27:eb:9e:68:8e:91:c0:1f:8d:c3:d8:7c:b6:
                    32:39:49:c8:a5:31:4f:37:05:e5:c9:71:58:9e:a0:
                    b6:45
                Exponent: 65537 (0x10001)
        X509v3 extensions:
            X509v3 Basic Constraints: critical
                CA:FALSE
            X509v3 Subject Key Identifier: 
                CC:3D:71:0F:A7:CF:34:9C:7A:4D:EF:C3:8D:AE:DA:A4:4F:8E:37:77
            X509v3 Authority Key Identifier: 
                keyid:3E:63:B8:B9:97:81:3F:39:42:FE:A2:74:39:87:9A:A7:C7:DD:D2:7A

            X509v3 Extended Key Usage: 
                TLS Web Server Authentication, TLS Web Client Authentication
            X509v3 Subject Alternative Name: 
                DNS:www.example.org, DNS:mail.example.org, DNS:mail.example.com, IP Address:127.0.0.1
    Signature Algorithm: sha256WithRSAEncryption
         3e:7d:c7:8f:84:80:6e:29:bd:b8:94:46:61:7c:2d:f2:52:ce:
         f3:db:42:69:87:49:94:cc:5d:71:16:34:1f:a1:dd:36:b5:88:
         84:cd:65:54:0c:21:d2:a5:ed:7f:17:41:97:c7:7f:ed:db:e1:
         3d:86:ee:41:6a:1d:f1:56:28:5c:26:ce:6a:cc:fb:65:1f:b5:
         63:9c:bf:e3:c7:85:65:11:16:37:cf:8a:c3:15:b0:28:9b:46:
         75:dc:ad:40:90:d5:80:8b:ed:80:bd:9c:17:98:e6:ce:5e:14:
         7f:e3:db:3d:02:34:f4:10:84:46:1c:be:04:f1:45:ae:ec:d8:
         94:5c:e3:7f:2d:66:ab:6e:0d:54:59:89:9d:a1:81:35:31:2f:
         12:86:5d:36:fe:dd:43:0d:df:bf:22:56:64:a9:74:1f:72:3c:
         df:60:51:e2:52:3b:e7:06:41:e1:82:f5:89:3f:e1:5d:7b:4f:
         21:d1:e2:89:89:df:48:74:cd:0a:09:79:b7:6f:8e:bc:66:c9:
         55:39:58:5c:1b:e2:15:6d:af:f7:2b:4a:3c:7e:ab:32:83:8d:
         6e:db:ab:30:44:03:41:7c:d7:dd:0b:eb:4f:7a:6b:75:09:dc:
         0c:91:86:a7:c7:23:30:3b:75:e4:48:57:37:be:f5:d5:14:9f:
         ec:29:21:74
-----BEGIN CERTIFICATE-----
MIIDtDCCApygAwIBAgIBATANBgkqhkiG9w0BAQsFADAeMRwwGgYDVQQDDBNRVUlD
IFNlcnZlciBSb290IENBMB4XDTE2MDQwMzA1MTYyN1oXDTE2MDQwNjA1MTYyN1ow
ZDELMAkGA1UEBhMCVVMxEzARBgNVBAgMCkNhbGlmb3JuaWExFjAUBgNVBAcMDU1v
dW50YWluIFZpZXcxFDASBgNVBAoMC1FVSUMgU2VydmVyMRIwEAYDVQQDDAkxMjcu
MC4wLjEwggEiMA0GCSqGSIb3DQEBAQUAA4IBDwAwggEKAoIBAQCkvcfo/IqjAYcx
E22W7FYRDX3IJ2+LWPUon1TcWgOq6l8MNmsPqbbUSgHR3enDX76dzS9XFtkzgEUA
S4oCLnEcxKkbKZ63hdzpakt+MwvkeK3LGMcJ9YDSYT0dWbT4GPtj//xb8BCYu0qo
IDcLq9/l/4nX459itU4+Wq4+/9ICboqiAm4x90k5TgmnXtYu0oKN+5OoVUqfxijP
zJ4o6xVpQ2IdsRH8g8l0BSuS6WUmjFdTWA4g2XvwJzcoTBC4MDqmTNEl3HZ5OUaG
Ajk+DYsNWTXzURPEKwNhy7di7p9QThlrJ+ueaI6RwB+Nw9h8tjI5ScilMU83BeXJ
cVieoLZFAgMBAAGjgbYwgbMwDAYDVR0TAQH/BAIwADAdBgNVHQ4EFgQUzD1xD6fP
NJx6Te/Dja7apE+ON3cwHwYDVR0jBBgwFoAUPmO4uZeBPzlC/qJ0OYeap8fd0now
HQYDVR0lBBYwFAYIKwYBBQUHAwEGCCsGAQUFBwMCMEQGA1UdEQQ9MDuCD3d3dy5l
eGFtcGxlLm9yZ4IQbWFpbC5leGFtcGxlLm9yZ4IQbWFpbC5leGFtcGxlLmNvbYcE
fwAAATANBgkqhkiG9w0BAQsFAAOCAQEAPn3Hj4SAbim9uJRGYXwt8lLO89tCaYdJ
lMxdcRY0H6HdNrWIhM1lVAwh0qXtfxdBl8d/7dvhPYbuQWod8VYoXCbOasz7ZR+1
Y5y/48eFZREWN8+KwxWwKJtGddytQJDVgIvtgL2cF5jmzl4Uf+PbPQI09BCERhy+
BPFFruzYlFzjfy1mq24NVFmJnaGBNTEvEoZdNv7dQw3fvyJWZKl0H3I832BR4lI7
5wZB4YL1iT/hXXtPIdHiiYnfSHTNCgl5t2+OvGbJVTlYXBviFW2v9ytKPH6rMoON
bturMEQDQXzX3QvrT3prdQncDJGGp8cjMDt15EhXN7711RSf7CkhdA==
-----END CERTIFICATE-----
